target datalayout = "e-m:e-p270:32:32-p271:32:32-p272:64:64-i64:64-i128:128-f80:128-n8:16:32:64-S128"
target triple = "x86_64-pc-linux-gnu"

%struct.topology_eval = type { ptr, i16, ptr, i16, i8, ptr, i8, i8, ptr, i32, ptr, i32, ptr, i8, i32, i8 }

@blocks_nodes_bitmap = external global ptr, align 8

; Function Attrs: nounwind uwtable
define dso_local i32 @topology_p_eval_nodes(ptr noundef %0) #0 {
  %2 = alloca ptr, align 8
  store ptr %0, ptr %2, align 8
  %3 = load ptr, ptr @blocks_nodes_bitmap, align 8
  %4 = icmp ne ptr %3, null
  br i1 %4, label %5, label %17

5:                                                ; preds = %1
  %6 = load ptr, ptr @blocks_nodes_bitmap, align 8
  %7 = load ptr, ptr %2, align 8
  %8 = getelementptr inbounds nuw %struct.topology_eval, ptr %7, i32 0, i32 12
  %9 = load ptr, ptr %8, align 8
  %10 = call i32 @slurm_bit_overlap_any(ptr noundef %6, ptr noundef %9)
  %11 = icmp ne i32 %10, 0
  br i1 %11, label %12, label %17

12:                                               ; preds = %5
  %13 = load ptr, ptr %2, align 8
  %14 = getelementptr inbounds nuw %struct.topology_eval, ptr %13, i32 0, i32 5
  store ptr @eval_nodes_block, ptr %14, align 8
  %15 = load ptr, ptr %2, align 8
  %16 = getelementptr inbounds nuw %struct.topology_eval, ptr %15, i32 0, i32 15
  store i8 1, ptr %16, align 8
  br label %17

17:                                               ; preds = %12, %5, %1
  %18 = load ptr, ptr %2, align 8
  %19 = call i32 @common_topo_choose_nodes(ptr noundef %18)
  ret i32 %19
}