; Function Attrs: nounwind uwtable
define dso_local i32 @topology_p_eval_nodes(ptr noundef %0) local_unnamed_addr #0 {
  %2 = load ptr, ptr @blocks_nodes_bitmap, align 8
  %.not = icmp eq ptr %2, null
  br i1 %.not, label %10, label %3

3:                                                ; preds = %1
  %4 = getelementptr inbounds nuw i8, ptr %0, i64 80
  %5 = load ptr, ptr %4, align 8
  %6 = tail call i32 @slurm_bit_overlap_any(ptr noundef nonnull %2, ptr noundef %5) #9
  %.not4 = icmp eq i32 %6, 0
  br i1 %.not4, label %10, label %7

7:                                                ; preds = %3
  %8 = getelementptr inbounds nuw i8, ptr %0, i64 32
  store ptr @eval_nodes_block, ptr %8, align 8
  %9 = getelementptr inbounds nuw i8, ptr %0, i64 96
  store i8 1, ptr %9, align 8
  br label %10

10:                                               ; preds = %7, %3, %1
  %11 = tail call i32 @common_topo_choose_nodes(ptr noundef %0) #9
  ret i32 %11
}